; Function Attrs: nounwind sspstrong uwtable
define internal void @set_refcount_ro2(ptr noundef captures(none) %refcount_array, i64 noundef %index, i64 noundef %value) #0 {
entry:
  %tobool.not = icmp ult i64 %value, 16
  br i1 %tobool.not, label %if.end, label %if.else

if.else:                                          ; preds = %entry
  tail call void @__assert_fail(ptr noundef nonnull @.str.46, ptr noundef nonnull @.str.1, i32 noundef 179, ptr noundef nonnull @__PRETTY_FUNCTION__.set_refcount_ro2) #15
  unreachable

if.end:                                           ; preds = %entry
  %rem = shl i64 %index, 2
  %mul = and i64 %rem, 4
  %sh_prom = trunc nuw nsw i64 %mul to i8
  %shl = shl nuw i8 15, %sh_prom
  %not = xor i8 %shl, -1
  %div6 = lshr i64 %index, 1
  %arrayidx = getelementptr i8, ptr %refcount_array, i64 %div6
  %0 = load i8, ptr %arrayidx, align 1
  %and = and i8 %0, %not
  %shl4 = shl nuw nsw i64 %value, %mul
  %1 = trunc nuw i64 %shl4 to i8
  %conv8 = or i8 %and, %1
  store i8 %conv8, ptr %arrayidx, align 1
  ret void
}